target datalayout = "e-m:e-p270:32:32-p271:32:32-p272:64:64-i64:64-i128:128-f80:128-n8:16:32:64-S128"
target triple = "x86_64-unknown-linux-gnu"

%class.btGeneric6DofSpring2Constraint = type <{ %class.btTypedConstraint, %class.btTransform, %class.btTransform, [3 x %class.btJacobianEntry], [3 x %class.btJacobianEntry], %class.btTranslationalLimitMotor2, [3 x %class.btRotationalLimitMotor2], i32, %class.btTransform, %class.btTransform, %class.btVector3, [3 x %class.btVector3], %class.btVector3, float, float, i8, [3 x i8], i32, [4 x i8] }>
%class.btTypedConstraint = type { ptr, %struct.btTypedObject, i32, %union.anon.0, float, i8, i8, i32, ptr, ptr, float, float, ptr }
%struct.btTypedObject = type { i32 }
%union.anon.0 = type { ptr }
%class.btJacobianEntry = type { %class.btVector3, %class.btVector3, %class.btVector3, %class.btVector3, %class.btVector3, float }
%class.btTranslationalLimitMotor2 = type { %class.btVector3, %class.btVector3, %class.btVector3, %class.btVector3, %class.btVector3, %class.btVector3, %class.btVector3, [3 x i8], [3 x i8], [3 x i8], %class.btVector3, %class.btVector3, [3 x i8], %class.btVector3, [3 x i8], %class.btVector3, %class.btVector3, %class.btVector3, %class.btVector3, %class.btVector3, %class.btVector3, [3 x i32] }
%class.btRotationalLimitMotor2 = type { float, float, float, float, float, float, float, i8, float, float, i8, float, i8, float, i8, float, i8, float, float, float, float, i32 }
%class.btTransform = type { %class.btMatrix3x3, %class.btVector3 }
%class.btMatrix3x3 = type { [3 x %class.btVector3] }
%class.btVector3 = type { [4 x float] }

; Function Attrs: mustprogress nounwind uwtable
define linkonce_odr dso_local noundef ptr @_ZN9btVector3cvPfEv(ptr noundef nonnull align 4 dereferenceable(16) %this) #1 comdat align 2 {
entry:
  %this.addr = alloca ptr, align 8
  store ptr %this, ptr %this.addr, align 8
  %this1 = load ptr, ptr %this.addr, align 8
  %m_floats = getelementptr inbounds %class.btVector3, ptr %this1, i32 0, i32 0
  %arrayidx = getelementptr inbounds [4 x float], ptr %m_floats, i64 0, i64 0
  ret ptr %arrayidx
}

; Function Attrs: mustprogress uwtable
define dso_local void @_ZN30btGeneric6DofSpring2Constraint8setParamEifi(ptr noundef nonnull align 8 dereferenceable(1484) %this, i32 noundef %num, float noundef %value, i32 noundef %axis) unnamed_addr #2 align 2 {
entry:
  %this.addr = alloca ptr, align 8
  %num.addr = alloca i32, align 4
  %value.addr = alloca float, align 4
  %axis.addr = alloca i32, align 4
  store ptr %this, ptr %this.addr, align 8
  store i32 %num, ptr %num.addr, align 4
  store float %value, ptr %value.addr, align 4
  store i32 %axis, ptr %axis.addr, align 4
  %this1 = load ptr, ptr %this.addr, align 8
  %0 = load i32, ptr %axis.addr, align 4
  %cmp = icmp sge i32 %0, 0
  br i1 %cmp, label %land.lhs.true, label %if.else

land.lhs.true:                                    ; preds = %entry
  %1 = load i32, ptr %axis.addr, align 4
  %cmp2 = icmp slt i32 %1, 3
  br i1 %cmp2, label %if.then, label %if.else

if.then:                                          ; preds = %land.lhs.true
  %2 = load i32, ptr %num.addr, align 4
  switch i32 %2, label %sw.default [
    i32 2, label %sw.bb
    i32 4, label %sw.bb3
    i32 1, label %sw.bb12
    i32 3, label %sw.bb21
  ]

sw.bb:                                            ; preds = %if.then
  %3 = load float, ptr %value.addr, align 4
  %m_linearLimits = getelementptr inbounds %class.btGeneric6DofSpring2Constraint, ptr %this1, i32 0, i32 5
  %m_stopERP = getelementptr inbounds %class.btTranslationalLimitMotor2, ptr %m_linearLimits, i32 0, i32 3
  %call = call noundef ptr @_ZN9btVector3cvPfEv(ptr noundef nonnull align 4 dereferenceable(16) %m_stopERP)
  %4 = load i32, ptr %axis.addr, align 4
  %idxprom = sext i32 %4 to i64
  %arrayidx = getelementptr inbounds float, ptr %call, i64 %idxprom
  store float %3, ptr %arrayidx, align 4
  %5 = load i32, ptr %axis.addr, align 4
  %mul = mul nsw i32 %5, 4
  %shl = shl i32 2, %mul
  %m_flags = getelementptr inbounds %class.btGeneric6DofSpring2Constraint, ptr %this1, i32 0, i32 17
  %6 = load i32, ptr %m_flags, align 8
  %or = or i32 %6, %shl
  store i32 %or, ptr %m_flags, align 8
  br label %sw.epilog

sw.bb3:                                           ; preds = %if.then
  %7 = load float, ptr %value.addr, align 4
  %m_linearLimits4 = getelementptr inbounds %class.btGeneric6DofSpring2Constraint, ptr %this1, i32 0, i32 5
  %m_stopCFM = getelementptr inbounds %class.btTranslationalLimitMotor2, ptr %m_linearLimits4, i32 0, i32 4
  %call5 = call noundef ptr @_ZN9btVector3cvPfEv(ptr noundef nonnull align 4 dereferenceable(16) %m_stopCFM)
  %8 = load i32, ptr %axis.addr, align 4
  %idxprom6 = sext i32 %8 to i64
  %arrayidx7 = getelementptr inbounds float, ptr %call5, i64 %idxprom6
  store float %7, ptr %arrayidx7, align 4
  %9 = load i32, ptr %axis.addr, align 4
  %mul8 = mul nsw i32 %9, 4
  %shl9 = shl i32 1, %mul8
  %m_flags10 = getelementptr inbounds %class.btGeneric6DofSpring2Constraint, ptr %this1, i32 0, i32 17
  %10 = load i32, ptr %m_flags10, align 8
  %or11 = or i32 %10, %shl9
  store i32 %or11, ptr %m_flags10, align 8
  br label %sw.epilog

sw.bb12:                                          ; preds = %if.then
  %11 = load float, ptr %value.addr, align 4
  %m_linearLimits13 = getelementptr inbounds %class.btGeneric6DofSpring2Constraint, ptr %this1, i32 0, i32 5
  %m_motorERP = getelementptr inbounds %class.btTranslationalLimitMotor2, ptr %m_linearLimits13, i32 0, i32 5
  %call14 = call noundef ptr @_ZN9btVector3cvPfEv(ptr noundef nonnull align 4 dereferenceable(16) %m_motorERP)
  %12 = load i32, ptr %axis.addr, align 4
  %idxprom15 = sext i32 %12 to i64
  %arrayidx16 = getelementptr inbounds float, ptr %call14, i64 %idxprom15
  store float %11, ptr %arrayidx16, align 4
  %13 = load i32, ptr %axis.addr, align 4
  %mul17 = mul nsw i32 %13, 4
  %shl18 = shl i32 8, %mul17
  %m_flags19 = getelementptr inbounds %class.btGeneric6DofSpring2Constraint, ptr %this1, i32 0, i32 17
  %14 = load i32, ptr %m_flags19, align 8
  %or20 = or i32 %14, %shl18
  store i32 %or20, ptr %m_flags19, align 8
  br label %sw.epilog

sw.bb21:                                          ; preds = %if.then
  %15 = load float, ptr %value.addr, align 4
  %m_linearLimits22 = getelementptr inbounds %class.btGeneric6DofSpring2Constraint, ptr %this1, i32 0, i32 5
  %m_motorCFM = getelementptr inbounds %class.btTranslationalLimitMotor2, ptr %m_linearLimits22, i32 0, i32 6
  %call23 = call noundef ptr @_ZN9btVector3cvPfEv(ptr noundef nonnull align 4 dereferenceable(16) %m_motorCFM)
  %16 = load i32, ptr %axis.addr, align 4
  %idxprom24 = sext i32 %16 to i64
  %arrayidx25 = getelementptr inbounds float, ptr %call23, i64 %idxprom24
  store float %15, ptr %arrayidx25, align 4
  %17 = load i32, ptr %axis.addr, align 4
  %mul26 = mul nsw i32 %17, 4
  %shl27 = shl i32 4, %mul26
  %m_flags28 = getelementptr inbounds %class.btGeneric6DofSpring2Constraint, ptr %this1, i32 0, i32 17
  %18 = load i32, ptr %m_flags28, align 8
  %or29 = or i32 %18, %shl27
  store i32 %or29, ptr %m_flags28, align 8
  br label %sw.epilog

sw.default:                                       ; preds = %if.then
  br label %sw.epilog

sw.epilog:                                        ; preds = %sw.default, %sw.bb21, %sw.bb12, %sw.bb3, %sw.bb
  br label %if.end75

if.else:                                          ; preds = %land.lhs.true, %entry
  %19 = load i32, ptr %axis.addr, align 4
  %cmp30 = icmp sge i32 %19, 3
  br i1 %cmp30, label %land.lhs.true31, label %if.else74

land.lhs.true31:                                  ; preds = %if.else
  %20 = load i32, ptr %axis.addr, align 4
  %cmp32 = icmp slt i32 %20, 6
  br i1 %cmp32, label %if.then33, label %if.else74

if.then33:                                        ; preds = %land.lhs.true31
  %21 = load i32, ptr %num.addr, align 4
  switch i32 %21, label %sw.default72 [
    i32 2, label %sw.bb34
    i32 4, label %sw.bb42
    i32 1, label %sw.bb52
    i32 3, label %sw.bb62
  ]

sw.bb34:                                          ; preds = %if.then33
  %22 = load float, ptr %value.addr, align 4
  %m_angularLimits = getelementptr inbounds %class.btGeneric6DofSpring2Constraint, ptr %this1, i32 0, i32 6
  %23 = load i32, ptr %axis.addr, align 4
  %sub = sub nsw i32 %23, 3
  %idxprom35 = sext i32 %sub to i64
  %arrayidx36 = getelementptr inbounds [3 x %class.btRotationalLimitMotor2], ptr %m_angularLimits, i64 0, i64 %idxprom35
  %m_stopERP37 = getelementptr inbounds %class.btRotationalLimitMotor2, ptr %arrayidx36, i32 0, i32 3
  store float %22, ptr %m_stopERP37, align 4
  %24 = load i32, ptr %axis.addr, align 4
  %mul38 = mul nsw i32 %24, 4
  %shl39 = shl i32 2, %mul38
  %m_flags40 = getelementptr inbounds %class.btGeneric6DofSpring2Constraint, ptr %this1, i32 0, i32 17
  %25 = load i32, ptr %m_flags40, align 8
  %or41 = or i32 %25, %shl39
  store i32 %or41, ptr %m_flags40, align 8
  br label %sw.epilog73

sw.bb42:                                          ; preds = %if.then33
  %26 = load float, ptr %value.addr, align 4
  %m_angularLimits43 = getelementptr inbounds %class.btGeneric6DofSpring2Constraint, ptr %this1, i32 0, i32 6
  %27 = load i32, ptr %axis.addr, align 4
  %sub44 = sub nsw i32 %27, 3
  %idxprom45 = sext i32 %sub44 to i64
  %arrayidx46 = getelementptr inbounds [3 x %class.btRotationalLimitMotor2], ptr %m_angularLimits43, i64 0, i64 %idxprom45
  %m_stopCFM47 = getelementptr inbounds %class.btRotationalLimitMotor2, ptr %arrayidx46, i32 0, i32 4
  store float %26, ptr %m_stopCFM47, align 8
  %28 = load i32, ptr %axis.addr, align 4
  %mul48 = mul nsw i32 %28, 4
  %shl49 = shl i32 1, %mul48
  %m_flags50 = getelementptr inbounds %class.btGeneric6DofSpring2Constraint, ptr %this1, i32 0, i32 17
  %29 = load i32, ptr %m_flags50, align 8
  %or51 = or i32 %29, %shl49
  store i32 %or51, ptr %m_flags50, align 8
  br label %sw.epilog73

sw.bb52:                                          ; preds = %if.then33
  %30 = load float, ptr %value.addr, align 4
  %m_angularLimits53 = getelementptr inbounds %class.btGeneric6DofSpring2Constraint, ptr %this1, i32 0, i32 6
  %31 = load i32, ptr %axis.addr, align 4
  %sub54 = sub nsw i32 %31, 3
  %idxprom55 = sext i32 %sub54 to i64
  %arrayidx56 = getelementptr inbounds [3 x %class.btRotationalLimitMotor2], ptr %m_angularLimits53, i64 0, i64 %idxprom55
  %m_motorERP57 = getelementptr inbounds %class.btRotationalLimitMotor2, ptr %arrayidx56, i32 0, i32 5
  store float %30, ptr %m_motorERP57, align 4
  %32 = load i32, ptr %axis.addr, align 4
  %mul58 = mul nsw i32 %32, 4
  %shl59 = shl i32 8, %mul58
  %m_flags60 = getelementptr inbounds %class.btGeneric6DofSpring2Constraint, ptr %this1, i32 0, i32 17
  %33 = load i32, ptr %m_flags60, align 8
  %or61 = or i32 %33, %shl59
  store i32 %or61, ptr %m_flags60, align 8
  br label %sw.epilog73

sw.bb62:                                          ; preds = %if.then33
  %34 = load float, ptr %value.addr, align 4
  %m_angularLimits63 = getelementptr inbounds %class.btGeneric6DofSpring2Constraint, ptr %this1, i32 0, i32 6
  %35 = load i32, ptr %axis.addr, align 4
  %sub64 = sub nsw i32 %35, 3
  %idxprom65 = sext i32 %sub64 to i64
  %arrayidx66 = getelementptr inbounds [3 x %class.btRotationalLimitMotor2], ptr %m_angularLimits63, i64 0, i64 %idxprom65
  %m_motorCFM67 = getelementptr inbounds %class.btRotationalLimitMotor2, ptr %arrayidx66, i32 0, i32 6
  store float %34, ptr %m_motorCFM67, align 8
  %36 = load i32, ptr %axis.addr, align 4
  %mul68 = mul nsw i32 %36, 4
  %shl69 = shl i32 4, %mul68
  %m_flags70 = getelementptr inbounds %class.btGeneric6DofSpring2Constraint, ptr %this1, i32 0, i32 17
  %37 = load i32, ptr %m_flags70, align 8
  %or71 = or i32 %37, %shl69
  store i32 %or71, ptr %m_flags70, align 8
  br label %sw.epilog73

sw.default72:                                     ; preds = %if.then33
  br label %sw.epilog73

sw.epilog73:                                      ; preds = %sw.default72, %sw.bb62, %sw.bb52, %sw.bb42, %sw.bb34
  br label %if.end

if.else74:                                        ; preds = %land.lhs.true31, %if.else
  br label %if.end

if.end:                                           ; preds = %if.else74, %sw.epilog73
  br label %if.end75

if.end75:                                         ; preds = %if.end, %sw.epilog
  ret void
}