; Function Attrs: mustprogress nofree norecurse nosync nounwind willreturn memory(argmem: readwrite) uwtable
define dso_local void @_ZN30btGeneric6DofSpring2Constraint8setParamEifi(ptr nocapture noundef nonnull align 8 dereferenceable(1484) %this, i32 noundef %num, float noundef %value, i32 noundef %axis) unnamed_addr #11 align 2 {
entry:
  %or.cond = icmp ult i32 %axis, 3
  br i1 %or.cond, label %if.then, label %if.else

if.then:                                          ; preds = %entry
  switch i32 %num, label %if.end75 [
    i32 2, label %sw.bb
    i32 4, label %sw.bb3
    i32 1, label %sw.bb12
    i32 3, label %sw.bb21
  ]

sw.bb:                                            ; preds = %if.then
  %m_stopERP = getelementptr inbounds i8, ptr %this, i64 752
  %idxprom = zext nneg i32 %axis to i64
  %arrayidx = getelementptr inbounds float, ptr %m_stopERP, i64 %idxprom
  store float %value, ptr %arrayidx, align 4
  br label %if.end75.sink.split

sw.bb3:                                           ; preds = %if.then
  %m_stopCFM = getelementptr inbounds i8, ptr %this, i64 768
  %idxprom6 = zext nneg i32 %axis to i64
  %arrayidx7 = getelementptr inbounds float, ptr %m_stopCFM, i64 %idxprom6
  store float %value, ptr %arrayidx7, align 4
  br label %if.end75.sink.split

sw.bb12:                                          ; preds = %if.then
  %m_motorERP = getelementptr inbounds i8, ptr %this, i64 784
  %idxprom15 = zext nneg i32 %axis to i64
  %arrayidx16 = getelementptr inbounds float, ptr %m_motorERP, i64 %idxprom15
  store float %value, ptr %arrayidx16, align 4
  br label %if.end75.sink.split

sw.bb21:                                          ; preds = %if.then
  %m_motorCFM = getelementptr inbounds i8, ptr %this, i64 800
  %idxprom24 = zext nneg i32 %axis to i64
  %arrayidx25 = getelementptr inbounds float, ptr %m_motorCFM, i64 %idxprom24
  store float %value, ptr %arrayidx25, align 4
  br label %if.end75.sink.split

if.else:                                          ; preds = %entry
  %0 = add i32 %axis, -3
  %or.cond1 = icmp ult i32 %0, 3
  br i1 %or.cond1, label %if.then33, label %if.end75

if.then33:                                        ; preds = %if.else
  switch i32 %num, label %if.end75 [
    i32 2, label %sw.bb34
    i32 4, label %sw.bb42
    i32 1, label %sw.bb52
    i32 3, label %sw.bb62
  ]

sw.bb34:                                          ; preds = %if.then33
  %m_angularLimits = getelementptr inbounds i8, ptr %this, i64 992
  %idxprom35 = zext nneg i32 %0 to i64
  %m_stopERP37 = getelementptr inbounds [3 x %class.btRotationalLimitMotor2], ptr %m_angularLimits, i64 0, i64 %idxprom35, i32 3
  store float %value, ptr %m_stopERP37, align 4
  br label %if.end75.sink.split

sw.bb42:                                          ; preds = %if.then33
  %m_angularLimits43 = getelementptr inbounds i8, ptr %this, i64 992
  %idxprom45 = zext nneg i32 %0 to i64
  %m_stopCFM47 = getelementptr inbounds [3 x %class.btRotationalLimitMotor2], ptr %m_angularLimits43, i64 0, i64 %idxprom45, i32 4
  store float %value, ptr %m_stopCFM47, align 8
  br label %if.end75.sink.split

sw.bb52:                                          ; preds = %if.then33
  %m_angularLimits53 = getelementptr inbounds i8, ptr %this, i64 992
  %idxprom55 = zext nneg i32 %0 to i64
  %m_motorERP57 = getelementptr inbounds [3 x %class.btRotationalLimitMotor2], ptr %m_angularLimits53, i64 0, i64 %idxprom55, i32 5
  store float %value, ptr %m_motorERP57, align 4
  br label %if.end75.sink.split

sw.bb62:                                          ; preds = %if.then33
  %m_angularLimits63 = getelementptr inbounds i8, ptr %this, i64 992
  %idxprom65 = zext nneg i32 %0 to i64
  %m_motorCFM67 = getelementptr inbounds [3 x %class.btRotationalLimitMotor2], ptr %m_angularLimits63, i64 0, i64 %idxprom65, i32 6
  store float %value, ptr %m_motorCFM67, align 8
  br label %if.end75.sink.split

if.end75.sink.split:                              ; preds = %sw.bb21, %sw.bb12, %sw.bb3, %sw.bb, %sw.bb34, %sw.bb42, %sw.bb52, %sw.bb62
  %.sink = phi i32 [ 4, %sw.bb21 ], [ 8, %sw.bb12 ], [ 1, %sw.bb3 ], [ 2, %sw.bb ], [ 2, %sw.bb34 ], [ 1, %sw.bb42 ], [ 8, %sw.bb52 ], [ 4, %sw.bb62 ]
  %mul26 = shl nuw nsw i32 %axis, 2
  %shl27 = shl nuw nsw i32 %.sink, %mul26
  %m_flags28 = getelementptr inbounds i8, ptr %this, i64 1480
  %1 = load i32, ptr %m_flags28, align 8
  %or71 = or i32 %1, %shl27
  store i32 %or71, ptr %m_flags28, align 8
  br label %if.end75

if.end75:                                         ; preds = %if.end75.sink.split, %if.then33, %if.else, %if.then
  ret void
}